target datalayout = "e-m:e-p270:32:32-p271:32:32-p272:64:64-i64:64-i128:128-f80:128-n8:16:32:64-S128"
target triple = "x86_64-pc-linux-gnu"

%struct.Gia_ManEra_t_ = type { ptr, i32, i32, ptr, ptr, ptr, ptr, i32, ptr, ptr, i32, ptr }
%struct.Gia_Man_t_ = type { ptr, ptr, i32, i32, i32, i32, ptr, ptr, i32, i32, i32, ptr, ptr, %struct.Vec_Int_t_, %struct.Vec_Int_t_, i32, i32, i32, %struct.Vec_Int_t_, ptr, ptr, ptr, i32, i32, i32, i32, ptr, ptr, ptr, ptr, ptr, i32, i32, ptr, i32, ptr, ptr, ptr, ptr, ptr, ptr, ptr, ptr, ptr, ptr, ptr, ptr, ptr, ptr, ptr, ptr, ptr, ptr, %struct.Vec_Int_t_, %struct.Vec_Int_t_, ptr, ptr, ptr, ptr, ptr, ptr, ptr, ptr, ptr, ptr, ptr, ptr, ptr, ptr, ptr, ptr, ptr, ptr, ptr, ptr, ptr, i32, float, float, ptr, ptr, i32, ptr, ptr, ptr, ptr, ptr, ptr, ptr, ptr, ptr, ptr, ptr, ptr, ptr, ptr, ptr, i64, i64, ptr, ptr, i32, i32, i32, i32, i32, i32, i32, i32, i32, i32, i32, i32, ptr, ptr, ptr, ptr, ptr, ptr, ptr, ptr, i32, i32, i32, ptr, i32, i32, ptr, ptr, ptr, ptr, ptr, ptr, i32, i32, ptr, %struct.Vec_Int_t_, %struct.Vec_Int_t_, %struct.Vec_Int_t_, ptr, ptr, ptr }
%struct.Vec_Int_t_ = type { i32, i32, ptr }
%struct.Gia_ObjEra_t_ = type { i32, i32, i32, i32, [0 x i32] }
%struct.Gia_Obj_t_ = type <{ i64, i32 }>

; Function Attrs: nounwind uwtable
define internal ptr @Gia_ManObj(ptr noundef %0, i32 noundef %1) #0 {
  %3 = alloca ptr, align 8
  %4 = alloca i32, align 4
  store ptr %0, ptr %3, align 8
  store i32 %1, ptr %4, align 4
  %5 = load ptr, ptr %3, align 8
  %6 = getelementptr inbounds %struct.Gia_Man_t_, ptr %5, i32 0, i32 6
  %7 = load ptr, ptr %6, align 8
  %8 = load i32, ptr %4, align 4
  %9 = sext i32 %8 to i64
  %10 = getelementptr inbounds %struct.Gia_Obj_t_, ptr %7, i64 %9
  ret ptr %10
}

; Function Attrs: nounwind uwtable
define internal i32 @Vec_IntEntry(ptr noundef %0, i32 noundef %1) #0 {
  %3 = alloca ptr, align 8
  %4 = alloca i32, align 4
  store ptr %0, ptr %3, align 8
  store i32 %1, ptr %4, align 4
  %5 = load ptr, ptr %3, align 8
  %6 = getelementptr inbounds %struct.Vec_Int_t_, ptr %5, i32 0, i32 2
  %7 = load ptr, ptr %6, align 8
  %8 = load i32, ptr %4, align 4
  %9 = sext i32 %8 to i64
  %10 = getelementptr inbounds i32, ptr %7, i64 %9
  %11 = load i32, ptr %10, align 4
  ret i32 %11
}

; Function Attrs: nounwind uwtable
define internal i32 @Vec_IntSize(ptr noundef %0) #0 {
  %2 = alloca ptr, align 8
  store ptr %0, ptr %2, align 8
  %3 = load ptr, ptr %2, align 8
  %4 = getelementptr inbounds %struct.Vec_Int_t_, ptr %3, i32 0, i32 1
  %5 = load i32, ptr %4, align 4
  ret i32 %5
}

; Function Attrs: nounwind uwtable
define internal i32 @Abc_InfoHasBit(ptr noundef %0, i32 noundef %1) #0 {
  %3 = alloca ptr, align 8
  %4 = alloca i32, align 4
  store ptr %0, ptr %3, align 8
  store i32 %1, ptr %4, align 4
  %5 = load ptr, ptr %3, align 8
  %6 = load i32, ptr %4, align 4
  %7 = ashr i32 %6, 5
  %8 = sext i32 %7 to i64
  %9 = getelementptr inbounds i32, ptr %5, i64 %8
  %10 = load i32, ptr %9, align 4
  %11 = load i32, ptr %4, align 4
  %12 = and i32 %11, 31
  %13 = shl i32 1, %12
  %14 = and i32 %10, %13
  %15 = icmp ugt i32 %14, 0
  %16 = zext i1 %15 to i32
  ret i32 %16
}

; Function Attrs: nounwind uwtable
define internal ptr @Gia_ManEraData(ptr noundef %0, i32 noundef %1) #0 {
  %3 = alloca ptr, align 8
  %4 = alloca i32, align 4
  store ptr %0, ptr %3, align 8
  store i32 %1, ptr %4, align 4
  %5 = load ptr, ptr %3, align 8
  %6 = getelementptr inbounds %struct.Gia_ManEra_t_, ptr %5, i32 0, i32 3
  %7 = load ptr, ptr %6, align 8
  %8 = load i32, ptr %4, align 4
  %9 = load ptr, ptr %3, align 8
  %10 = getelementptr inbounds %struct.Gia_ManEra_t_, ptr %9, i32 0, i32 1
  %11 = load i32, ptr %10, align 8
  %12 = mul nsw i32 %8, %11
  %13 = sext i32 %12 to i64
  %14 = getelementptr inbounds i32, ptr %7, i64 %13
  ret ptr %14
}

; Function Attrs: nounwind uwtable
define internal i32 @Gia_ObjId(ptr noundef %0, ptr noundef %1) #0 {
  %3 = alloca ptr, align 8
  %4 = alloca ptr, align 8
  store ptr %0, ptr %3, align 8
  store ptr %1, ptr %4, align 8
  %5 = load ptr, ptr %4, align 8
  %6 = load ptr, ptr %3, align 8
  %7 = getelementptr inbounds %struct.Gia_Man_t_, ptr %6, i32 0, i32 6
  %8 = load ptr, ptr %7, align 8
  %9 = ptrtoint ptr %5 to i64
  %10 = ptrtoint ptr %8 to i64
  %11 = sub i64 %9, %10
  %12 = sdiv exact i64 %11, 12
  %13 = trunc i64 %12 to i32
  ret i32 %13
}

; Function Attrs: nounwind uwtable
define internal ptr @Gia_ManCi(ptr noundef %0, i32 noundef %1) #0 {
  %3 = alloca ptr, align 8
  %4 = alloca i32, align 4
  store ptr %0, ptr %3, align 8
  store i32 %1, ptr %4, align 4
  %5 = load ptr, ptr %3, align 8
  %6 = load ptr, ptr %3, align 8
  %7 = getelementptr inbounds %struct.Gia_Man_t_, ptr %6, i32 0, i32 11
  %8 = load ptr, ptr %7, align 8
  %9 = load i32, ptr %4, align 4
  %10 = call i32 @Vec_IntEntry(ptr noundef %8, i32 noundef %9)
  %11 = call ptr @Gia_ManObj(ptr noundef %5, i32 noundef %10)
  ret ptr %11
}

; Function Attrs: nounwind uwtable
define internal i32 @Gia_ManPiNum(ptr noundef %0) #0 {
  %2 = alloca ptr, align 8
  store ptr %0, ptr %2, align 8
  %3 = load ptr, ptr %2, align 8
  %4 = getelementptr inbounds %struct.Gia_Man_t_, ptr %3, i32 0, i32 11
  %5 = load ptr, ptr %4, align 8
  %6 = call i32 @Vec_IntSize(ptr noundef %5)
  %7 = load ptr, ptr %2, align 8
  %8 = getelementptr inbounds %struct.Gia_Man_t_, ptr %7, i32 0, i32 2
  %9 = load i32, ptr %8, align 8
  %10 = sub nsw i32 %6, %9
  ret i32 %10
}

; Function Attrs: nounwind uwtable
define internal i32 @Gia_ManRegNum(ptr noundef %0) #0 {
  %2 = alloca ptr, align 8
  store ptr %0, ptr %2, align 8
  %3 = load ptr, ptr %2, align 8
  %4 = getelementptr inbounds %struct.Gia_Man_t_, ptr %3, i32 0, i32 2
  %5 = load i32, ptr %4, align 8
  ret i32 %5
}

; Function Attrs: nounwind uwtable
define void @Gia_ManInsertState(ptr noundef %0, ptr noundef %1) #0 {
  %3 = alloca ptr, align 8
  %4 = alloca ptr, align 8
  %5 = alloca ptr, align 8
  %6 = alloca ptr, align 8
  %7 = alloca i32, align 4
  store ptr %0, ptr %3, align 8
  store ptr %1, ptr %4, align 8
  store i32 0, ptr %7, align 4
  br label %8

8:                                                ; preds = %58, %2
  %9 = load i32, ptr %7, align 4
  %10 = load ptr, ptr %3, align 8
  %11 = getelementptr inbounds %struct.Gia_ManEra_t_, ptr %10, i32 0, i32 0
  %12 = load ptr, ptr %11, align 8
  %13 = call i32 @Gia_ManRegNum(ptr noundef %12)
  %14 = icmp slt i32 %9, %13
  br i1 %14, label %15, label %27

15:                                               ; preds = %8
  %16 = load ptr, ptr %3, align 8
  %17 = getelementptr inbounds %struct.Gia_ManEra_t_, ptr %16, i32 0, i32 0
  %18 = load ptr, ptr %17, align 8
  %19 = load ptr, ptr %3, align 8
  %20 = getelementptr inbounds %struct.Gia_ManEra_t_, ptr %19, i32 0, i32 0
  %21 = load ptr, ptr %20, align 8
  %22 = call i32 @Gia_ManPiNum(ptr noundef %21)
  %23 = load i32, ptr %7, align 4
  %24 = add nsw i32 %22, %23
  %25 = call ptr @Gia_ManCi(ptr noundef %18, i32 noundef %24)
  store ptr %25, ptr %5, align 8
  %26 = icmp ne ptr %25, null
  br label %27

27:                                               ; preds = %15, %8
  %28 = phi i1 [ false, %8 ], [ %26, %15 ]
  br i1 %28, label %29, label %61

29:                                               ; preds = %27
  %30 = load ptr, ptr %3, align 8
  %31 = load ptr, ptr %3, align 8
  %32 = getelementptr inbounds %struct.Gia_ManEra_t_, ptr %31, i32 0, i32 0
  %33 = load ptr, ptr %32, align 8
  %34 = load ptr, ptr %5, align 8
  %35 = call i32 @Gia_ObjId(ptr noundef %33, ptr noundef %34)
  %36 = call ptr @Gia_ManEraData(ptr noundef %30, i32 noundef %35)
  store ptr %36, ptr %6, align 8
  %37 = load ptr, ptr %4, align 8
  %38 = getelementptr inbounds %struct.Gia_ObjEra_t_, ptr %37, i32 0, i32 4
  %39 = getelementptr inbounds [0 x i32], ptr %38, i64 0, i64 0
  %40 = load i32, ptr %7, align 4
  %41 = call i32 @Abc_InfoHasBit(ptr noundef %39, i32 noundef %40)
  %42 = icmp ne i32 %41, 0
  br i1 %42, label %43, label %50

43:                                               ; preds = %29
  %44 = load ptr, ptr %6, align 8
  %45 = load ptr, ptr %3, align 8
  %46 = getelementptr inbounds %struct.Gia_ManEra_t_, ptr %45, i32 0, i32 1
  %47 = load i32, ptr %46, align 8
  %48 = sext i32 %47 to i64
  %49 = mul i64 4, %48
  call void @llvm.memset.p0.i64(ptr align 4 %44, i8 -1, i64 %49, i1 false)
  br label %57

50:                                               ; preds = %29
  %51 = load ptr, ptr %6, align 8
  %52 = load ptr, ptr %3, align 8
  %53 = getelementptr inbounds %struct.Gia_ManEra_t_, ptr %52, i32 0, i32 1
  %54 = load i32, ptr %53, align 8
  %55 = sext i32 %54 to i64
  %56 = mul i64 4, %55
  call void @llvm.memset.p0.i64(ptr align 4 %51, i8 0, i64 %56, i1 false)
  br label %57

57:                                               ; preds = %50, %43
  br label %58

58:                                               ; preds = %57
  %59 = load i32, ptr %7, align 4
  %60 = add nsw i32 %59, 1
  store i32 %60, ptr %7, align 4
  br label %8, !llvm.loop !15

61:                                               ; preds = %27
  ret void
}