; Function Attrs: nofree norecurse nosync nounwind memory(readwrite, inaccessiblemem: none) uwtable
define void @Gia_ManInsertState(ptr noundef readonly captures(none) %0, ptr noundef readonly captures(none) %1) local_unnamed_addr #8 {
  %3 = load ptr, ptr %0, align 8
  %4 = getelementptr i8, ptr %3, i64 16
  %.val1723 = load i32, ptr %4, align 8
  %5 = icmp sgt i32 %.val1723, 0
  br i1 %5, label %.lr.ph, label %.critedge

.lr.ph:                                           ; preds = %2
  %6 = getelementptr i8, ptr %0, i64 8
  %7 = getelementptr i8, ptr %0, i64 16
  %8 = getelementptr inbounds nuw i8, ptr %1, i64 16
  br label %9

9:                                                ; preds = %.lr.ph, %35
  %.val1725 = phi i32 [ %.val1723, %.lr.ph ], [ %.val17, %35 ]
  %10 = phi ptr [ %3, %.lr.ph ], [ %37, %35 ]
  %.024 = phi i32 [ 0, %.lr.ph ], [ %36, %35 ]
  %11 = getelementptr i8, ptr %10, i64 32
  %.val18 = load ptr, ptr %11, align 8
  %.not = icmp eq ptr %.val18, null
  br i1 %.not, label %.critedge, label %12

12:                                               ; preds = %9
  %13 = getelementptr i8, ptr %10, i64 64
  %.val16 = load ptr, ptr %13, align 8
  %14 = getelementptr i8, ptr %.val16, i64 8
  %.val19.val = load ptr, ptr %14, align 8
  %15 = getelementptr i8, ptr %.val16, i64 4
  %.val16.val = load i32, ptr %15, align 4
  %16 = sub i32 %.024, %.val1725
  %17 = add i32 %16, %.val16.val
  %18 = sext i32 %17 to i64
  %19 = getelementptr inbounds i32, ptr %.val19.val, i64 %18
  %20 = load i32, ptr %19, align 4
  %.val21 = load i32, ptr %6, align 8
  %.val22 = load ptr, ptr %7, align 8
  %21 = mul nsw i32 %.val21, %20
  %22 = sext i32 %21 to i64
  %23 = getelementptr inbounds i32, ptr %.val22, i64 %22
  %24 = lshr i32 %.024, 5
  %25 = zext nneg i32 %24 to i64
  %26 = getelementptr inbounds nuw i32, ptr %8, i64 %25
  %27 = load i32, ptr %26, align 4
  %28 = and i32 %.024, 31
  %29 = shl nuw i32 1, %28
  %30 = and i32 %27, %29
  %.not15 = icmp eq i32 %30, 0
  %31 = sext i32 %.val21 to i64
  %32 = shl nsw i64 %31, 2
  br i1 %.not15, label %34, label %33

33:                                               ; preds = %12
  tail call void @llvm.memset.p0.i64(ptr align 4 %23, i8 -1, i64 %32, i1 false)
  br label %35

34:                                               ; preds = %12
  tail call void @llvm.memset.p0.i64(ptr align 4 %23, i8 0, i64 %32, i1 false)
  br label %35

35:                                               ; preds = %33, %34
  %36 = add nuw nsw i32 %.024, 1
  %37 = load ptr, ptr %0, align 8
  %38 = getelementptr i8, ptr %37, i64 16
  %.val17 = load i32, ptr %38, align 8
  %39 = icmp slt i32 %36, %.val17
  br i1 %39, label %9, label %.critedge, !llvm.loop !16

.critedge:                                        ; preds = %9, %35, %2
  ret void
}